target datalayout = "e-m:e-p270:32:32-p271:32:32-p272:64:64-i64:64-i128:128-f80:128-n8:16:32:64-S128"
target triple = "x86_64-pc-linux-gnu"

%"struct.llvm::RISCV::RISCVMaskedPseudoInfo" = type { i16, i16, i8 }
%struct.IndexType = type { i32, i32 }
%struct.KeyType.28 = type { i32 }
%"class.llvm::ArrayRef.29" = type { ptr, i64 }
%"struct.__gnu_cxx::__ops::_Iter_comp_val.778" = type { i8 }

; Function Attrs: mustprogress nounwind uwtable
define internal noundef zeroext i1 @_ZZN4llvm5RISCV31lookupMaskedIntrinsicByUnmaskedEjENK4CompclERKZNS0_31lookupMaskedIntrinsicByUnmaskedEjE9IndexTypeRKZNS0_31lookupMaskedIntrinsicByUnmaskedEjE7KeyType(ptr noundef nonnull align 1 dereferenceable(1) %0, ptr noundef nonnull align 4 dereferenceable(8) %1, ptr noundef nonnull align 4 dereferenceable(4) %2) #0 align 2 {
  %4 = alloca i1, align 1
  %5 = alloca ptr, align 8
  %6 = alloca ptr, align 8
  %7 = alloca ptr, align 8
  store ptr %0, ptr %5, align 8
  store ptr %1, ptr %6, align 8
  store ptr %2, ptr %7, align 8
  %8 = load ptr, ptr %6, align 8
  %9 = getelementptr inbounds nuw %struct.IndexType, ptr %8, i32 0, i32 0
  %10 = load i32, ptr %9, align 4
  %11 = load ptr, ptr %7, align 8
  %12 = getelementptr inbounds nuw %struct.KeyType.28, ptr %11, i32 0, i32 0
  %13 = load i32, ptr %12, align 4
  %14 = icmp ult i32 %10, %13
  br i1 %14, label %15, label %16

15:                                               ; preds = %3
  store i1 true, ptr %4, align 1
  br label %26

16:                                               ; preds = %3
  %17 = load ptr, ptr %6, align 8
  %18 = getelementptr inbounds nuw %struct.IndexType, ptr %17, i32 0, i32 0
  %19 = load i32, ptr %18, align 4
  %20 = load ptr, ptr %7, align 8
  %21 = getelementptr inbounds nuw %struct.KeyType.28, ptr %20, i32 0, i32 0
  %22 = load i32, ptr %21, align 4
  %23 = icmp ugt i32 %19, %22
  br i1 %23, label %24, label %25

24:                                               ; preds = %16
  store i1 false, ptr %4, align 1
  br label %26

25:                                               ; preds = %16
  store i1 false, ptr %4, align 1
  br label %26

26:                                               ; preds = %25, %24, %15
  %27 = load i1, ptr %4, align 1
  ret i1 %27
}

; Function Attrs: mustprogress nounwind uwtable
define internal void @_ZSt9__advanceIPKZN4llvm5RISCV31lookupMaskedIntrinsicByUnmaskedEjE9IndexTypelEvRT_T0_St26random_access_iterator_tag(ptr noundef nonnull align 8 dereferenceable(8) %0, i64 noundef %1) #0 {
  %3 = alloca ptr, align 8
  %4 = alloca i64, align 8
  store ptr %0, ptr %3, align 8
  store i64 %1, ptr %4, align 8
  %5 = load i64, ptr %4, align 8
  %6 = call i1 @llvm.is.constant.i64(i64 %5)
  br i1 %6, label %7, label %14

7:                                                ; preds = %2
  %8 = load i64, ptr %4, align 8
  %9 = icmp eq i64 %8, 1
  br i1 %9, label %10, label %14

10:                                               ; preds = %7
  %11 = load ptr, ptr %3, align 8
  %12 = load ptr, ptr %11, align 8
  %13 = getelementptr inbounds %struct.IndexType, ptr %12, i32 1
  store ptr %13, ptr %11, align 8
  br label %30

14:                                               ; preds = %7, %2
  %15 = load i64, ptr %4, align 8
  %16 = call i1 @llvm.is.constant.i64(i64 %15)
  br i1 %16, label %17, label %24

17:                                               ; preds = %14
  %18 = load i64, ptr %4, align 8
  %19 = icmp eq i64 %18, -1
  br i1 %19, label %20, label %24

20:                                               ; preds = %17
  %21 = load ptr, ptr %3, align 8
  %22 = load ptr, ptr %21, align 8
  %23 = getelementptr inbounds %struct.IndexType, ptr %22, i32 -1
  store ptr %23, ptr %21, align 8
  br label %29

24:                                               ; preds = %17, %14
  %25 = load i64, ptr %4, align 8
  %26 = load ptr, ptr %3, align 8
  %27 = load ptr, ptr %26, align 8
  %28 = getelementptr inbounds %struct.IndexType, ptr %27, i64 %25
  store ptr %28, ptr %26, align 8
  br label %29

29:                                               ; preds = %24, %20
  br label %30

30:                                               ; preds = %29, %10
  ret void
}

; Function Attrs: mustprogress nounwind uwtable
define internal noundef i64 @_ZSt10__distanceIPKZN4llvm5RISCV31lookupMaskedIntrinsicByUnmaskedEjE9IndexTypeENSt15iterator_traitsIT_E15difference_typeES6_S6_St26random_access_iterator_tag(ptr noundef %0, ptr noundef %1) #0 {
  %3 = alloca ptr, align 8
  %4 = alloca ptr, align 8
  store ptr %0, ptr %3, align 8
  store ptr %1, ptr %4, align 8
  %5 = load ptr, ptr %4, align 8
  %6 = load ptr, ptr %3, align 8
  %7 = ptrtoint ptr %5 to i64
  %8 = ptrtoint ptr %6 to i64
  %9 = sub i64 %7, %8
  %10 = sdiv exact i64 %9, 8
  ret i64 %10
}

; Function Attrs: mustprogress nounwind uwtable
define internal void @_ZSt19__iterator_categoryIPKZN4llvm5RISCV31lookupMaskedIntrinsicByUnmaskedEjE9IndexTypeENSt15iterator_traitsIT_E17iterator_categoryERKS6_(ptr noundef nonnull align 8 dereferenceable(8) %0) #0 {
  %2 = alloca ptr, align 8
  store ptr %0, ptr %2, align 8
  ret void
}

; Function Attrs: mustprogress nounwind uwtable
define internal noundef zeroext i1 @_ZN9__gnu_cxx5__ops14_Iter_comp_valIZN4llvm5RISCV31lookupMaskedIntrinsicByUnmaskedEjE4CompEclIPKZNS3_31lookupMaskedIntrinsicByUnmaskedEjE9IndexTypeKZNS3_31lookupMaskedIntrinsicByUnmaskedEjE7KeyTypeEEbT_RT0_(ptr noundef nonnull align 1 dereferenceable(1) %0, ptr noundef %1, ptr noundef nonnull align 4 dereferenceable(4) %2) #0 align 2 {
  %4 = alloca ptr, align 8
  %5 = alloca ptr, align 8
  %6 = alloca ptr, align 8
  store ptr %0, ptr %4, align 8
  store ptr %1, ptr %5, align 8
  store ptr %2, ptr %6, align 8
  %7 = load ptr, ptr %4, align 8
  %8 = load ptr, ptr %5, align 8
  %9 = load ptr, ptr %6, align 8
  %10 = call noundef zeroext i1 @_ZZN4llvm5RISCV31lookupMaskedIntrinsicByUnmaskedEjENK4CompclERKZNS0_31lookupMaskedIntrinsicByUnmaskedEjE9IndexTypeRKZNS0_31lookupMaskedIntrinsicByUnmaskedEjE7KeyType(ptr noundef nonnull align 1 dereferenceable(1) %7, ptr noundef nonnull align 4 dereferenceable(8) %8, ptr noundef nonnull align 4 dereferenceable(4) %9)
  ret i1 %10
}

; Function Attrs: mustprogress nounwind uwtable
define internal void @_ZSt7advanceIPKZN4llvm5RISCV31lookupMaskedIntrinsicByUnmaskedEjE9IndexTypelEvRT_T0_(ptr noundef nonnull align 8 dereferenceable(8) %0, i64 noundef %1) #0 {
  %3 = alloca ptr, align 8
  %4 = alloca i64, align 8
  %5 = alloca i64, align 8
  store ptr %0, ptr %3, align 8
  store i64 %1, ptr %4, align 8
  %6 = load i64, ptr %4, align 8
  store i64 %6, ptr %5, align 8
  %7 = load ptr, ptr %3, align 8
  %8 = load i64, ptr %5, align 8
  %9 = load ptr, ptr %3, align 8
  call void @_ZSt19__iterator_categoryIPKZN4llvm5RISCV31lookupMaskedIntrinsicByUnmaskedEjE9IndexTypeENSt15iterator_traitsIT_E17iterator_categoryERKS6_(ptr noundef nonnull align 8 dereferenceable(8) %9)
  call void @_ZSt9__advanceIPKZN4llvm5RISCV31lookupMaskedIntrinsicByUnmaskedEjE9IndexTypelEvRT_T0_St26random_access_iterator_tag(ptr noundef nonnull align 8 dereferenceable(8) %7, i64 noundef %8)
  ret void
}

; Function Attrs: mustprogress nounwind uwtable
define internal noundef i64 @_ZSt8distanceIPKZN4llvm5RISCV31lookupMaskedIntrinsicByUnmaskedEjE9IndexTypeENSt15iterator_traitsIT_E15difference_typeES6_S6_(ptr noundef %0, ptr noundef %1) #0 {
  %3 = alloca ptr, align 8
  %4 = alloca ptr, align 8
  store ptr %0, ptr %3, align 8
  store ptr %1, ptr %4, align 8
  %5 = load ptr, ptr %3, align 8
  %6 = load ptr, ptr %4, align 8
  call void @_ZSt19__iterator_categoryIPKZN4llvm5RISCV31lookupMaskedIntrinsicByUnmaskedEjE9IndexTypeENSt15iterator_traitsIT_E17iterator_categoryERKS6_(ptr noundef nonnull align 8 dereferenceable(8) %3)
  %7 = call noundef i64 @_ZSt10__distanceIPKZN4llvm5RISCV31lookupMaskedIntrinsicByUnmaskedEjE9IndexTypeENSt15iterator_traitsIT_E15difference_typeES6_S6_St26random_access_iterator_tag(ptr noundef %5, ptr noundef %6)
  ret i64 %7
}

; Function Attrs: mustprogress nounwind uwtable
define internal void @_ZN9__gnu_cxx5__ops14_Iter_comp_valIZN4llvm5RISCV31lookupMaskedIntrinsicByUnmaskedEjE4CompEC2ES4_(ptr noundef nonnull align 1 dereferenceable(1) %0) unnamed_addr #0 align 2 {
  %2 = alloca ptr, align 8
  store ptr %0, ptr %2, align 8
  ret void
}

; Function Attrs: mustprogress nounwind uwtable
define internal noundef ptr @_ZSt13__lower_boundIPKZN4llvm5RISCV31lookupMaskedIntrinsicByUnmaskedEjE9IndexTypeZNS1_31lookupMaskedIntrinsicByUnmaskedEjE7KeyTypeN9__gnu_cxx5__ops14_Iter_comp_valIZNS1_31lookupMaskedIntrinsicByUnmaskedEjE4CompEEET_SB_SB_RKT0_T1_(ptr noundef %0, ptr noundef %1, ptr noundef nonnull align 4 dereferenceable(4) %2) #0 {
  %4 = alloca %"struct.__gnu_cxx::__ops::_Iter_comp_val.778", align 1
  %5 = alloca ptr, align 8
  %6 = alloca ptr, align 8
  %7 = alloca ptr, align 8
  %8 = alloca i64, align 8
  %9 = alloca i64, align 8
  %10 = alloca ptr, align 8
  store ptr %0, ptr %5, align 8
  store ptr %1, ptr %6, align 8
  store ptr %2, ptr %7, align 8
  %11 = load ptr, ptr %5, align 8
  %12 = load ptr, ptr %6, align 8
  %13 = call noundef i64 @_ZSt8distanceIPKZN4llvm5RISCV31lookupMaskedIntrinsicByUnmaskedEjE9IndexTypeENSt15iterator_traitsIT_E15difference_typeES6_S6_(ptr noundef %11, ptr noundef %12)
  store i64 %13, ptr %8, align 8
  br label %14

14:                                               ; preds = %35, %3
  %15 = load i64, ptr %8, align 8
  %16 = icmp sgt i64 %15, 0
  br i1 %16, label %17, label %36

17:                                               ; preds = %14
  %18 = load i64, ptr %8, align 8
  %19 = ashr i64 %18, 1
  store i64 %19, ptr %9, align 8
  %20 = load ptr, ptr %5, align 8
  store ptr %20, ptr %10, align 8
  %21 = load i64, ptr %9, align 8
  call void @_ZSt7advanceIPKZN4llvm5RISCV31lookupMaskedIntrinsicByUnmaskedEjE9IndexTypelEvRT_T0_(ptr noundef nonnull align 8 dereferenceable(8) %10, i64 noundef %21)
  %22 = load ptr, ptr %10, align 8
  %23 = load ptr, ptr %7, align 8
  %24 = call noundef zeroext i1 @_ZN9__gnu_cxx5__ops14_Iter_comp_valIZN4llvm5RISCV31lookupMaskedIntrinsicByUnmaskedEjE4CompEclIPKZNS3_31lookupMaskedIntrinsicByUnmaskedEjE9IndexTypeKZNS3_31lookupMaskedIntrinsicByUnmaskedEjE7KeyTypeEEbT_RT0_(ptr noundef nonnull align 1 dereferenceable(1) %4, ptr noundef %22, ptr noundef nonnull align 4 dereferenceable(4) %23)
  br i1 %24, label %25, label %33

25:                                               ; preds = %17
  %26 = load ptr, ptr %10, align 8
  store ptr %26, ptr %5, align 8
  %27 = load ptr, ptr %5, align 8
  %28 = getelementptr inbounds %struct.IndexType, ptr %27, i32 1
  store ptr %28, ptr %5, align 8
  %29 = load i64, ptr %8, align 8
  %30 = load i64, ptr %9, align 8
  %31 = sub nsw i64 %29, %30
  %32 = sub nsw i64 %31, 1
  store i64 %32, ptr %8, align 8
  br label %35

33:                                               ; preds = %17
  %34 = load i64, ptr %9, align 8
  store i64 %34, ptr %8, align 8
  br label %35

35:                                               ; preds = %33, %25
  br label %14, !llvm.loop !50

36:                                               ; preds = %14
  %37 = load ptr, ptr %5, align 8
  ret ptr %37
}

; Function Attrs: mustprogress nounwind uwtable
define internal void @_ZN9__gnu_cxx5__ops15__iter_comp_valIZN4llvm5RISCV31lookupMaskedIntrinsicByUnmaskedEjE4CompEENS0_14_Iter_comp_valIT_EES6_() #0 {
  %1 = alloca %"struct.__gnu_cxx::__ops::_Iter_comp_val.778", align 1
  call void @_ZN9__gnu_cxx5__ops14_Iter_comp_valIZN4llvm5RISCV31lookupMaskedIntrinsicByUnmaskedEjE4CompEC2ES4_(ptr noundef nonnull align 1 dereferenceable(1) %1)
  ret void
}

; Function Attrs: mustprogress nounwind uwtable
define internal noundef ptr @_ZSt11lower_boundIPKZN4llvm5RISCV31lookupMaskedIntrinsicByUnmaskedEjE9IndexTypeZNS1_31lookupMaskedIntrinsicByUnmaskedEjE7KeyTypeZNS1_31lookupMaskedIntrinsicByUnmaskedEjE4CompET_S7_S7_RKT0_T1_(ptr noundef %0, ptr noundef %1, ptr noundef nonnull align 4 dereferenceable(4) %2) #0 {
  %4 = alloca ptr, align 8
  %5 = alloca ptr, align 8
  %6 = alloca ptr, align 8
  store ptr %0, ptr %4, align 8
  store ptr %1, ptr %5, align 8
  store ptr %2, ptr %6, align 8
  %7 = load ptr, ptr %4, align 8
  %8 = load ptr, ptr %5, align 8
  %9 = load ptr, ptr %6, align 8
  call void @_ZN9__gnu_cxx5__ops15__iter_comp_valIZN4llvm5RISCV31lookupMaskedIntrinsicByUnmaskedEjE4CompEENS0_14_Iter_comp_valIT_EES6_()
  %10 = call noundef ptr @_ZSt13__lower_boundIPKZN4llvm5RISCV31lookupMaskedIntrinsicByUnmaskedEjE9IndexTypeZNS1_31lookupMaskedIntrinsicByUnmaskedEjE7KeyTypeN9__gnu_cxx5__ops14_Iter_comp_valIZNS1_31lookupMaskedIntrinsicByUnmaskedEjE4CompEEET_SB_SB_RKT0_T1_(ptr noundef %7, ptr noundef %8, ptr noundef nonnull align 4 dereferenceable(4) %9)
  ret ptr %10
}

; Function Attrs: mustprogress nounwind uwtable
define internal noundef ptr @_ZNK4llvm8ArrayRefIZNS_5RISCV31lookupMaskedIntrinsicByUnmaskedEjE9IndexTypeE3endEv(ptr noundef nonnull align 8 dereferenceable(16) %0) #0 align 2 {
  %2 = alloca ptr, align 8
  store ptr %0, ptr %2, align 8
  %3 = load ptr, ptr %2, align 8
  %4 = getelementptr inbounds nuw %"class.llvm::ArrayRef.29", ptr %3, i32 0, i32 0
  %5 = load ptr, ptr %4, align 8
  %6 = getelementptr inbounds nuw %"class.llvm::ArrayRef.29", ptr %3, i32 0, i32 1
  %7 = load i64, ptr %6, align 8
  %8 = getelementptr inbounds %struct.IndexType, ptr %5, i64 %7
  ret ptr %8
}

; Function Attrs: mustprogress nounwind uwtable
define internal noundef ptr @_ZNK4llvm8ArrayRefIZNS_5RISCV31lookupMaskedIntrinsicByUnmaskedEjE9IndexTypeE5beginEv(ptr noundef nonnull align 8 dereferenceable(16) %0) #0 align 2 {
  %2 = alloca ptr, align 8
  store ptr %0, ptr %2, align 8
  %3 = load ptr, ptr %2, align 8
  %4 = getelementptr inbounds nuw %"class.llvm::ArrayRef.29", ptr %3, i32 0, i32 0
  %5 = load ptr, ptr %4, align 8
  ret ptr %5
}

; Function Attrs: mustprogress nounwind uwtable
define internal void @_ZN4llvm8ArrayRefIZNS_5RISCV31lookupMaskedIntrinsicByUnmaskedEjE9IndexTypeEC2ILm3213EEERAT__KS2_(ptr noundef nonnull align 8 dereferenceable(16) %0, ptr noundef nonnull align 4 dereferenceable(25704) %1) unnamed_addr #0 align 2 {
  %3 = alloca ptr, align 8
  %4 = alloca ptr, align 8
  store ptr %0, ptr %3, align 8
  store ptr %1, ptr %4, align 8
  %5 = load ptr, ptr %3, align 8
  %6 = getelementptr inbounds nuw %"class.llvm::ArrayRef.29", ptr %5, i32 0, i32 0
  %7 = load ptr, ptr %4, align 8
  %8 = getelementptr inbounds [3213 x %struct.IndexType], ptr %7, i64 0, i64 0
  store ptr %8, ptr %6, align 8
  %9 = getelementptr inbounds nuw %"class.llvm::ArrayRef.29", ptr %5, i32 0, i32 1
  store i64 3213, ptr %9, align 8
  ret void
}

; Function Attrs: mustprogress nounwind uwtable
define dso_local noundef ptr @_ZN4llvm5RISCV31lookupMaskedIntrinsicByUnmaskedEj(i32 noundef %0) #0 {
  %2 = alloca ptr, align 8
  %3 = alloca i32, align 4
  %4 = alloca %struct.KeyType.28, align 4
  %5 = alloca %"class.llvm::ArrayRef.29", align 8
  %6 = alloca ptr, align 8
  store i32 %0, ptr %3, align 4
  %7 = getelementptr inbounds nuw %struct.KeyType.28, ptr %4, i32 0, i32 0
  %8 = load i32, ptr %3, align 4
  store i32 %8, ptr %7, align 4
  call void @_ZN4llvm8ArrayRefIZNS_5RISCV31lookupMaskedIntrinsicByUnmaskedEjE9IndexTypeEC2ILm3213EEERAT__KS2_(ptr noundef nonnull align 8 dereferenceable(16) %5, ptr noundef nonnull align 4 dereferenceable(25704) @_ZZN4llvm5RISCV31lookupMaskedIntrinsicByUnmaskedEjE5Index)
  %9 = call noundef ptr @_ZNK4llvm8ArrayRefIZNS_5RISCV31lookupMaskedIntrinsicByUnmaskedEjE9IndexTypeE5beginEv(ptr noundef nonnull align 8 dereferenceable(16) %5)
  %10 = call noundef ptr @_ZNK4llvm8ArrayRefIZNS_5RISCV31lookupMaskedIntrinsicByUnmaskedEjE9IndexTypeE3endEv(ptr noundef nonnull align 8 dereferenceable(16) %5)
  %11 = call noundef ptr @_ZSt11lower_boundIPKZN4llvm5RISCV31lookupMaskedIntrinsicByUnmaskedEjE9IndexTypeZNS1_31lookupMaskedIntrinsicByUnmaskedEjE7KeyTypeZNS1_31lookupMaskedIntrinsicByUnmaskedEjE4CompET_S7_S7_RKT0_T1_(ptr noundef %9, ptr noundef %10, ptr noundef nonnull align 4 dereferenceable(4) %4)
  store ptr %11, ptr %6, align 8
  %12 = load ptr, ptr %6, align 8
  %13 = call noundef ptr @_ZNK4llvm8ArrayRefIZNS_5RISCV31lookupMaskedIntrinsicByUnmaskedEjE9IndexTypeE3endEv(ptr noundef nonnull align 8 dereferenceable(16) %5)
  %14 = icmp eq ptr %12, %13
  br i1 %14, label %22, label %15

15:                                               ; preds = %1
  %16 = getelementptr inbounds nuw %struct.KeyType.28, ptr %4, i32 0, i32 0
  %17 = load i32, ptr %16, align 4
  %18 = load ptr, ptr %6, align 8
  %19 = getelementptr inbounds nuw %struct.IndexType, ptr %18, i32 0, i32 0
  %20 = load i32, ptr %19, align 4
  %21 = icmp ne i32 %17, %20
  br i1 %21, label %22, label %23

22:                                               ; preds = %15, %1
  store ptr null, ptr %2, align 8
  br label %29

23:                                               ; preds = %15
  %24 = load ptr, ptr %6, align 8
  %25 = getelementptr inbounds nuw %struct.IndexType, ptr %24, i32 0, i32 1
  %26 = load i32, ptr %25, align 4
  %27 = zext i32 %26 to i64
  %28 = getelementptr inbounds [3213 x %"struct.llvm::RISCV::RISCVMaskedPseudoInfo"], ptr @_ZN4llvm5RISCVL23RISCVMaskedPseudosTableE, i64 0, i64 %27
  store ptr %28, ptr %2, align 8
  br label %29

29:                                               ; preds = %23, %22
  %30 = load ptr, ptr %2, align 8
  ret ptr %30
}