; Function Attrs: mustprogress nofree norecurse nosync nounwind willreturn memory(none) uwtable
define dso_local noundef ptr @_ZN4llvm5RISCV31lookupMaskedIntrinsicByUnmaskedEj(i32 noundef %0) local_unnamed_addr #4 {
  br label %.lr.ph.i.i

.lr.ph.i.i:                                       ; preds = %1, %.lr.ph.i.i
  %.04.i.i = phi ptr [ %.1.i.i, %.lr.ph.i.i ], [ @_ZZN4llvm5RISCV31lookupMaskedIntrinsicByUnmaskedEjE5Index, %1 ]
  %.0113.i.i = phi i64 [ %.112.i.i, %.lr.ph.i.i ], [ 3213, %1 ]
  %2 = lshr i64 %.0113.i.i, 1
  %3 = getelementptr inbounds %struct.IndexType, ptr %.04.i.i, i64 %2
  %.val.i.i = load i32, ptr %3, align 4
  %4 = icmp ult i32 %.val.i.i, %0
  %5 = getelementptr inbounds i8, ptr %3, i64 8
  %6 = xor i64 %2, -1
  %7 = add nsw i64 %.0113.i.i, %6
  %.112.i.i = select i1 %4, i64 %7, i64 %2
  %.1.i.i = select i1 %4, ptr %5, ptr %.04.i.i
  %8 = icmp sgt i64 %.112.i.i, 0
  br i1 %8, label %.lr.ph.i.i, label %_ZSt11lower_boundIPKZN4llvm5RISCV31lookupMaskedIntrinsicByUnmaskedEjE9IndexTypeZNS1_31lookupMaskedIntrinsicByUnmaskedEjE7KeyTypeZNS1_31lookupMaskedIntrinsicByUnmaskedEjE4CompET_S7_S7_RKT0_T1_.exit, !llvm.loop !7

_ZSt11lower_boundIPKZN4llvm5RISCV31lookupMaskedIntrinsicByUnmaskedEjE9IndexTypeZNS1_31lookupMaskedIntrinsicByUnmaskedEjE7KeyTypeZNS1_31lookupMaskedIntrinsicByUnmaskedEjE4CompET_S7_S7_RKT0_T1_.exit: ; preds = %.lr.ph.i.i
  %9 = icmp eq ptr %.1.i.i, getelementptr inbounds (i8, ptr @_ZZN4llvm5RISCV31lookupMaskedIntrinsicByUnmaskedEjE5Index, i64 25704)
  br i1 %9, label %17, label %10

10:                                               ; preds = %_ZSt11lower_boundIPKZN4llvm5RISCV31lookupMaskedIntrinsicByUnmaskedEjE9IndexTypeZNS1_31lookupMaskedIntrinsicByUnmaskedEjE7KeyTypeZNS1_31lookupMaskedIntrinsicByUnmaskedEjE4CompET_S7_S7_RKT0_T1_.exit
  %11 = load i32, ptr %.1.i.i, align 4
  %.not = icmp eq i32 %0, %11
  br i1 %.not, label %12, label %17

12:                                               ; preds = %10
  %13 = getelementptr inbounds nuw i8, ptr %.1.i.i, i64 4
  %14 = load i32, ptr %13, align 4
  %15 = zext i32 %14 to i64
  %16 = getelementptr inbounds [3213 x %"struct.llvm::RISCV::RISCVMaskedPseudoInfo"], ptr @_ZN4llvm5RISCVL23RISCVMaskedPseudosTableE, i64 0, i64 %15
  br label %17

17:                                               ; preds = %_ZSt11lower_boundIPKZN4llvm5RISCV31lookupMaskedIntrinsicByUnmaskedEjE9IndexTypeZNS1_31lookupMaskedIntrinsicByUnmaskedEjE7KeyTypeZNS1_31lookupMaskedIntrinsicByUnmaskedEjE4CompET_S7_S7_RKT0_T1_.exit, %10, %12
  %.0 = phi ptr [ %16, %12 ], [ null, %10 ], [ null, %_ZSt11lower_boundIPKZN4llvm5RISCV31lookupMaskedIntrinsicByUnmaskedEjE9IndexTypeZNS1_31lookupMaskedIntrinsicByUnmaskedEjE7KeyTypeZNS1_31lookupMaskedIntrinsicByUnmaskedEjE4CompET_S7_S7_RKT0_T1_.exit ]
  ret ptr %.0
}